target datalayout = "e-m:e-p270:32:32-p271:32:32-p272:64:64-i64:64-i128:128-f80:128-n8:16:32:64-S128"
target triple = "x86_64-pc-linux-gnu"

%"class.clang::MultiplexASTMutationListener" = type { %"class.clang::ASTMutationListener", %"class.std::vector.2" }
%"class.clang::ASTMutationListener" = type { ptr }
%"class.std::vector.2" = type { %"struct.std::_Vector_base.3" }
%"struct.std::_Vector_base.3" = type { %"struct.std::_Vector_base<clang::ASTMutationListener *, std::allocator<clang::ASTMutationListener *>>::_Vector_impl" }
%"struct.std::_Vector_base<clang::ASTMutationListener *, std::allocator<clang::ASTMutationListener *>>::_Vector_impl" = type { %"struct.std::_Vector_base<clang::ASTMutationListener *, std::allocator<clang::ASTMutationListener *>>::_Vector_impl_data" }
%"struct.std::_Vector_base<clang::ASTMutationListener *, std::allocator<clang::ASTMutationListener *>>::_Vector_impl_data" = type { ptr, ptr, ptr }
%"class.__gnu_cxx::__normal_iterator.7" = type { ptr }

; Function Attrs: mustprogress nounwind uwtable
define linkonce_odr hidden noundef nonnull align 8 dereferenceable(8) ptr @_ZNK9__gnu_cxx17__normal_iteratorIPPN5clang19ASTMutationListenerESt6vectorIS3_SaIS3_EEE4baseEv(ptr noundef nonnull align 8 dereferenceable(8) %0) #0 comdat align 2 {
  %2 = alloca ptr, align 8
  store ptr %0, ptr %2, align 8
  %3 = load ptr, ptr %2, align 8
  %4 = getelementptr inbounds nuw %"class.__gnu_cxx::__normal_iterator.7", ptr %3, i32 0, i32 0
  ret ptr %4
}

; Function Attrs: mustprogress nounwind uwtable
define linkonce_odr hidden void @_ZN9__gnu_cxx17__normal_iteratorIPPN5clang19ASTMutationListenerESt6vectorIS3_SaIS3_EEEC2ERKS4_(ptr noundef nonnull align 8 dereferenceable(8) %0, ptr noundef nonnull align 8 dereferenceable(8) %1) unnamed_addr #0 comdat align 2 {
  %3 = alloca ptr, align 8
  %4 = alloca ptr, align 8
  store ptr %0, ptr %3, align 8
  store ptr %1, ptr %4, align 8
  %5 = load ptr, ptr %3, align 8
  %6 = getelementptr inbounds nuw %"class.__gnu_cxx::__normal_iterator.7", ptr %5, i32 0, i32 0
  %7 = load ptr, ptr %4, align 8
  %8 = load ptr, ptr %7, align 8
  store ptr %8, ptr %6, align 8
  ret void
}

; Function Attrs: mustprogress nounwind uwtable
define linkonce_odr hidden noundef nonnull align 8 dereferenceable(8) ptr @_ZN9__gnu_cxx17__normal_iteratorIPPN5clang19ASTMutationListenerESt6vectorIS3_SaIS3_EEEppEv(ptr noundef nonnull align 8 dereferenceable(8) %0) #0 comdat align 2 {
  %2 = alloca ptr, align 8
  store ptr %0, ptr %2, align 8
  %3 = load ptr, ptr %2, align 8
  %4 = getelementptr inbounds nuw %"class.__gnu_cxx::__normal_iterator.7", ptr %3, i32 0, i32 0
  %5 = load ptr, ptr %4, align 8
  %6 = getelementptr inbounds ptr, ptr %5, i32 1
  store ptr %6, ptr %4, align 8
  ret ptr %3
}

; Function Attrs: mustprogress nounwind uwtable
define linkonce_odr hidden noundef nonnull align 8 dereferenceable(8) ptr @_ZNK9__gnu_cxx17__normal_iteratorIPPN5clang19ASTMutationListenerESt6vectorIS3_SaIS3_EEEdeEv(ptr noundef nonnull align 8 dereferenceable(8) %0) #0 comdat align 2 {
  %2 = alloca ptr, align 8
  store ptr %0, ptr %2, align 8
  %3 = load ptr, ptr %2, align 8
  %4 = getelementptr inbounds nuw %"class.__gnu_cxx::__normal_iterator.7", ptr %3, i32 0, i32 0
  %5 = load ptr, ptr %4, align 8
  ret ptr %5
}

; Function Attrs: mustprogress nounwind uwtable
define linkonce_odr noundef zeroext i1 @_ZN9__gnu_cxxneIPPN5clang19ASTMutationListenerESt6vectorIS3_SaIS3_EEEEbRKNS_17__normal_iteratorIT_T0_EESD_(ptr noundef nonnull align 8 dereferenceable(8) %0, ptr noundef nonnull align 8 dereferenceable(8) %1) #0 comdat {
  %3 = alloca ptr, align 8
  %4 = alloca ptr, align 8
  store ptr %0, ptr %3, align 8
  store ptr %1, ptr %4, align 8
  %5 = load ptr, ptr %3, align 8
  %6 = call noundef nonnull align 8 dereferenceable(8) ptr @_ZNK9__gnu_cxx17__normal_iteratorIPPN5clang19ASTMutationListenerESt6vectorIS3_SaIS3_EEE4baseEv(ptr noundef nonnull align 8 dereferenceable(8) %5) #8
  %7 = load ptr, ptr %6, align 8
  %8 = load ptr, ptr %4, align 8
  %9 = call noundef nonnull align 8 dereferenceable(8) ptr @_ZNK9__gnu_cxx17__normal_iteratorIPPN5clang19ASTMutationListenerESt6vectorIS3_SaIS3_EEE4baseEv(ptr noundef nonnull align 8 dereferenceable(8) %8) #8
  %10 = load ptr, ptr %9, align 8
  %11 = icmp ne ptr %7, %10
  ret i1 %11
}

; Function Attrs: mustprogress nounwind uwtable
define linkonce_odr hidden ptr @_ZNSt6vectorIPN5clang19ASTMutationListenerESaIS2_EE3endEv(ptr noundef nonnull align 8 dereferenceable(24) %0) #0 comdat align 2 {
  %2 = alloca %"class.__gnu_cxx::__normal_iterator.7", align 8
  %3 = alloca ptr, align 8
  store ptr %0, ptr %3, align 8
  %4 = load ptr, ptr %3, align 8
  %5 = getelementptr inbounds nuw %"struct.std::_Vector_base.3", ptr %4, i32 0, i32 0
  %6 = getelementptr inbounds nuw %"struct.std::_Vector_base<clang::ASTMutationListener *, std::allocator<clang::ASTMutationListener *>>::_Vector_impl_data", ptr %5, i32 0, i32 1
  call void @_ZN9__gnu_cxx17__normal_iteratorIPPN5clang19ASTMutationListenerESt6vectorIS3_SaIS3_EEEC2ERKS4_(ptr noundef nonnull align 8 dereferenceable(8) %2, ptr noundef nonnull align 8 dereferenceable(8) %6) #8
  %7 = getelementptr inbounds nuw %"class.__gnu_cxx::__normal_iterator.7", ptr %2, i32 0, i32 0
  %8 = load ptr, ptr %7, align 8
  ret ptr %8
}

; Function Attrs: mustprogress nounwind uwtable
define linkonce_odr hidden ptr @_ZNSt6vectorIPN5clang19ASTMutationListenerESaIS2_EE5beginEv(ptr noundef nonnull align 8 dereferenceable(24) %0) #0 comdat align 2 {
  %2 = alloca %"class.__gnu_cxx::__normal_iterator.7", align 8
  %3 = alloca ptr, align 8
  store ptr %0, ptr %3, align 8
  %4 = load ptr, ptr %3, align 8
  %5 = getelementptr inbounds nuw %"struct.std::_Vector_base.3", ptr %4, i32 0, i32 0
  %6 = getelementptr inbounds nuw %"struct.std::_Vector_base<clang::ASTMutationListener *, std::allocator<clang::ASTMutationListener *>>::_Vector_impl_data", ptr %5, i32 0, i32 0
  call void @_ZN9__gnu_cxx17__normal_iteratorIPPN5clang19ASTMutationListenerESt6vectorIS3_SaIS3_EEEC2ERKS4_(ptr noundef nonnull align 8 dereferenceable(8) %2, ptr noundef nonnull align 8 dereferenceable(8) %6) #8
  %7 = getelementptr inbounds nuw %"class.__gnu_cxx::__normal_iterator.7", ptr %2, i32 0, i32 0
  %8 = load ptr, ptr %7, align 8
  ret ptr %8
}

; Function Attrs: mustprogress nounwind uwtable
define dso_local void @_ZN5clang28MultiplexASTMutationListener22AddedAttributeToRecordEPKNS_4AttrEPKNS_10RecordDeclE(ptr noundef nonnull align 8 dereferenceable(32) %0, ptr noundef %1, ptr noundef %2) unnamed_addr #0 align 2 {
  %4 = alloca ptr, align 8
  %5 = alloca ptr, align 8
  %6 = alloca ptr, align 8
  %7 = alloca ptr, align 8
  %8 = alloca %"class.__gnu_cxx::__normal_iterator.7", align 8
  %9 = alloca %"class.__gnu_cxx::__normal_iterator.7", align 8
  %10 = alloca ptr, align 8
  store ptr %0, ptr %4, align 8
  store ptr %1, ptr %5, align 8
  store ptr %2, ptr %6, align 8
  %11 = load ptr, ptr %4, align 8
  %12 = getelementptr inbounds nuw %"class.clang::MultiplexASTMutationListener", ptr %11, i32 0, i32 1
  store ptr %12, ptr %7, align 8
  %13 = load ptr, ptr %7, align 8
  %14 = call ptr @_ZNSt6vectorIPN5clang19ASTMutationListenerESaIS2_EE5beginEv(ptr noundef nonnull align 8 dereferenceable(24) %13) #8
  %15 = getelementptr inbounds nuw %"class.__gnu_cxx::__normal_iterator.7", ptr %8, i32 0, i32 0
  store ptr %14, ptr %15, align 8
  %16 = load ptr, ptr %7, align 8
  %17 = call ptr @_ZNSt6vectorIPN5clang19ASTMutationListenerESaIS2_EE3endEv(ptr noundef nonnull align 8 dereferenceable(24) %16) #8
  %18 = getelementptr inbounds nuw %"class.__gnu_cxx::__normal_iterator.7", ptr %9, i32 0, i32 0
  store ptr %17, ptr %18, align 8
  br label %19

19:                                               ; preds = %30, %3
  %20 = call noundef zeroext i1 @_ZN9__gnu_cxxneIPPN5clang19ASTMutationListenerESt6vectorIS3_SaIS3_EEEEbRKNS_17__normal_iteratorIT_T0_EESD_(ptr noundef nonnull align 8 dereferenceable(8) %8, ptr noundef nonnull align 8 dereferenceable(8) %9) #8
  br i1 %20, label %21, label %32

21:                                               ; preds = %19
  %22 = call noundef nonnull align 8 dereferenceable(8) ptr @_ZNK9__gnu_cxx17__normal_iteratorIPPN5clang19ASTMutationListenerESt6vectorIS3_SaIS3_EEEdeEv(ptr noundef nonnull align 8 dereferenceable(8) %8) #8
  %23 = load ptr, ptr %22, align 8
  store ptr %23, ptr %10, align 8
  %24 = load ptr, ptr %10, align 8
  %25 = load ptr, ptr %5, align 8
  %26 = load ptr, ptr %6, align 8
  %27 = load ptr, ptr %24, align 8
  %28 = getelementptr inbounds ptr, ptr %27, i64 23
  %29 = load ptr, ptr %28, align 8
  call void %29(ptr noundef nonnull align 8 dereferenceable(8) %24, ptr noundef %25, ptr noundef %26)
  br label %30

30:                                               ; preds = %21
  %31 = call noundef nonnull align 8 dereferenceable(8) ptr @_ZN9__gnu_cxx17__normal_iteratorIPPN5clang19ASTMutationListenerESt6vectorIS3_SaIS3_EEEppEv(ptr noundef nonnull align 8 dereferenceable(8) %8) #8
  br label %19

32:                                               ; preds = %19
  ret void
}